(dp0
S'phi'
p1
(lp2
S'10408-01-09-00'
p3
aS'10408-01-11-00'
p4
aS'10408-01-12-00'
p5
aS'10408-01-13-00'
p6
aS'10408-01-17-01'
p7
aS'10408-01-17-02'
p8
aS'10408-01-18-00'
p9
aS'10408-01-19-00'
p10
aS'10408-01-19-01'
p11
aS'10408-01-19-02'
p12
aS'10408-01-20-00'
p13
aS'10408-01-20-01'
p14
asS'chi2'
p15
(lp16
S'20402-01-04-00'
p17
aS'20402-01-05-00'
p18
aS'20402-01-07-00'
p19
aS'20402-01-08-00'
p20
aS'20402-01-08-01'
p21
aS'20402-01-09-00'
p22
aS'20402-01-10-00'
p23
aS'20402-01-11-00'
p24
aS'20402-01-12-00'
p25
aS'20402-01-13-00'
p26
aS'20402-01-14-00'
p27
aS'20402-01-15-00'
p28
aS'20402-01-16-00'
p29
aS'20402-01-17-00'
p30
aS'20402-01-18-00'
p31
aS'20402-01-19-00'
p32
aS'20402-01-20-00'
p33
aS'20402-01-21-01'
p34
asS'chi3'
p35
(lp36
S'20402-01-49-00'
p37
aS'20402-01-49-01'
p38
aS'20402-01-50-00'
p39
aS'20402-01-50-01'
p40
aS'20402-01-51-00'
p41
aS'20402-01-52-00'
p42
asS'chi1'
p43
(lp44
S'10408-01-22-00'
p45
aS'10408-01-22-01'
p46
aS'10408-01-22-02'
p47
aS'10408-01-23-00'
p48
aS'10408-01-24-00'
p49
aS'10408-01-25-00'
p50
aS'10408-01-27-00'
p51
aS'10408-01-28-00'
p52
aS'10408-01-29-00'
p53
aS'10408-01-30-00'
p54
aS'10408-01-31-00'
p55
asS'chi4'
p56
(lp57
S'10408-01-31-00'
p58
aS'10408-01-32-00'
p59
aS'10408-01-33-00'
p60
aS'10408-01-38-00'
p61
aS'10408-01-42-00'
p62
aS'10408-01-43-00'
p63
aS'10408-01-45-00'
p64
aS'20187-02-02-00'
p65
aS'20402-01-01-00'
p66
aS'20402-01-02-02'
p67
aS'20402-01-24-00'
p68
aS'20402-01-25-00'
p69
aS'20402-01-26-00'
p70
aS'20402-01-26-01'
p71
aS'20402-01-26-02'
p72
aS'20402-01-27-01'
p73
aS'20402-01-27-03'
p74
aS'20402-01-29-00'
p75
aS'20402-01-30-01'
p76
aS'20402-01-48-00'
p77
asS'beta'
p78
(lp79
S'10408-01-10-00'
p80
aS'10408-01-21-00'
p81
aS'10408-01-21-01'
p82
aS'20402-01-43-00'
p83
aS'20402-01-43-02'
p84
aS'20402-01-44-00'
p85
aS'20402-01-45-00'
p86
aS'20402-01-45-03'
p87
aS'20402-01-46-00'
p88
aS'20402-01-52-01'
p89
aS'20402-01-52-02'
p90
aS'20402-01-53-00'
p91
aS'20402-01-59-00'
p92
asS'rho'
p93
(lp94
S'20402-01-03-00'
p95
aS'20402-01-27-02'
p96
aS'20402-01-30-00'
p97
aS'20402-01-31-00'
p98
aS'20402-01-31-01'
p99
aS'20402-01-31-02'
p100
aS'20402-01-32-00'
p101
aS'20402-01-32-01'
p102
aS'20402-01-34-00'
p103
aS'20402-01-34-01'
p104
asS'delta'
p105
(lp106
S'10408-01-13-00'
p107
aS'10408-01-14-00'
p108
aS'10408-01-14-01'
p109
aS'10408-01-14-02'
p110
aS'10408-01-14-03'
p111
aS'10408-01-14-04'
p112
aS'10408-01-14-05'
p113
aS'10408-01-14-07'
p114
aS'10408-01-14-08'
p115
aS'10408-01-14-09'
p116
aS'10408-01-17-00'
p117
aS'10408-01-17-03'
p118
aS'10408-01-18-00'
p119
aS'10408-01-18-01'
p120
aS'10408-01-18-04'
p121
aS'20402-01-41-00'
p122
aS'20402-01-41-01'
p123
aS'20402-01-41-02'
p124
aS'20402-01-41-03'
p125
aS'20402-01-42-00'
p126
aS'20402-01-53-02'
p127
aS'20402-01-54-00'
p128
asS'alpha'
p129
(lp130
S'20187-02-01-00'
p131
aS'20187-02-01-01'
p132
aS'20187-02-02-00'
p133
aS'20402-01-22-00'
p134
aS'20402-01-23-00'
p135
aS'20402-01-24-01'
p136
aS'20402-01-26-00'
p137
aS'20402-01-27-00'
p138
aS'20402-01-28-00'
p139
aS'20402-01-30-01'
p140
aS'20402-01-30-02'
p141
asS'kappa'
p142
(lp143
S'20402-01-33-00'
p144
aS'20402-01-35-00'
p145
asS'mu'
p146
(lp147
S'10408-01-08-00'
p148
aS'10408-01-34-00'
p149
aS'10408-01-35-00'
p150
aS'10408-01-36-00'
p151
aS'20402-01-43-00'
p152
aS'20402-01-43-01'
p153
aS'20402-01-45-01'
p154
aS'20402-01-53-01'
p155
aS'20402-01-53-02'
p156
aS'20402-01-59-00'
p157
asS'theta'
p158
(lp159
S'10408-01-15-00'
p160
aS'10408-01-15-01'
p161
aS'10408-01-15-02'
p162
aS'10408-01-15-03'
p163
aS'10408-01-15-04'
p164
aS'10408-01-15-05'
p165
aS'10408-01-16-00'
p166
aS'10408-01-16-01'
p167
aS'10408-01-16-02'
p168
aS'10408-01-16-03'
p169
aS'10408-01-16-04'
p170
aS'10408-01-21-01'
p171
aS'20402-01-45-02'
p172
asS'nu'
p173
(lp174
S'10408-01-37-00'
p175
aS'10408-01-40-00'
p176
aS'10408-01-41-00'
p177
aS'10408-01-44-00'
p178
aS'20402-01-01-00'
p179
aS'20402-01-02-02'
p180
asS'gamma'
p181
(lp182
S'10408-01-07-00'
p183
aS'20402-01-37-00'
p184
aS'20402-01-37-02'
p185
aS'20402-01-38-00'
p186
aS'20402-01-39-00'
p187
aS'20402-01-39-02'
p188
aS'20402-01-40-00'
p189
aS'20402-01-55-00'
p190
aS'20402-01-56-00'
p191
aS'20402-01-57-00'
p192
asS'lambda'
p193
(lp194
S'10408-01-37-00'
p195
aS'10408-01-38-00'
p196
aS'20402-01-36-00'
p197
aS'20402-01-36-01'
p198
aS'20402-01-37-01'
p199
as.